; Function Attrs: nounwind uwtable
define internal void @keyboardHandleKey(ptr readnone captures(none) %0, ptr readnone captures(none) %1, i32 noundef %2, i32 %3, i32 noundef %4, i32 noundef %5) #0 {
  %7 = alloca %struct.itimerspec, align 8
  %8 = load ptr, ptr getelementptr inbounds nuw (i8, ptr @_glfw, i64 137368), align 8, !tbaa !239
  %.not = icmp eq ptr %8, null
  br i1 %.not, label %50, label %9

9:                                                ; preds = %6
  %10 = icmp ult i32 %4, 256
  br i1 %10, label %11, label %translateKey.exit

11:                                               ; preds = %9
  %12 = zext nneg i32 %4 to i64
  %13 = getelementptr inbounds nuw [256 x i16], ptr getelementptr inbounds nuw (i8, ptr @_glfw, i64 134168), i64 0, i64 %12
  %14 = load i16, ptr %13, align 2, !tbaa !282
  %15 = sext i16 %14 to i32
  br label %translateKey.exit

translateKey.exit:                                ; preds = %9, %11
  %.0.i = phi i32 [ %15, %11 ], [ -1, %9 ]
  %16 = icmp eq i32 %5, 1
  %17 = zext i1 %16 to i32
  store i32 %2, ptr getelementptr inbounds nuw (i8, ptr @_glfw, i64 134132), align 4, !tbaa !251
  call void @llvm.lifetime.start.p0(i64 32, ptr nonnull %7) #20
  call void @llvm.memset.p0.i64(ptr noundef nonnull align 8 dereferenceable(32) %7, i8 0, i64 32, i1 false)
  br i1 %16, label %18, label %.critedge

18:                                               ; preds = %translateKey.exit
  %19 = add i32 %4, 8
  %20 = load ptr, ptr getelementptr inbounds nuw (i8, ptr @_glfw, i64 137240), align 8, !tbaa !376
  %21 = load ptr, ptr getelementptr inbounds nuw (i8, ptr @_glfw, i64 137144), align 8, !tbaa !313
  %22 = tail call i32 %20(ptr noundef %21, i32 noundef %19) #20
  %23 = icmp ne i32 %22, 0
  %24 = load i32, ptr getelementptr inbounds nuw (i8, ptr @_glfw, i64 134144), align 8
  %25 = icmp sgt i32 %24, 0
  %or.cond = select i1 %23, i1 %25, i1 false
  br i1 %or.cond, label %26, label %42

26:                                               ; preds = %18
  store i32 %4, ptr getelementptr inbounds nuw (i8, ptr @_glfw, i64 134152), align 8, !tbaa !281
  %27 = icmp samesign ugt i32 %24, 1
  br i1 %27, label %28, label %32

28:                                               ; preds = %26
  %29 = udiv i32 1000000000, %24
  %30 = zext nneg i32 %29 to i64
  %31 = getelementptr inbounds nuw i8, ptr %7, i64 8
  store i64 %30, ptr %31, align 8, !tbaa !377
  br label %33

32:                                               ; preds = %26
  store i64 1, ptr %7, align 8, !tbaa !378
  br label %33

33:                                               ; preds = %32, %28
  %34 = load i32, ptr getelementptr inbounds nuw (i8, ptr @_glfw, i64 134148), align 4, !tbaa !379
  %35 = sdiv i32 %34, 1000
  %36 = sext i32 %35 to i64
  %37 = getelementptr inbounds nuw i8, ptr %7, i64 16
  store i64 %36, ptr %37, align 8, !tbaa !333
  %38 = srem i32 %34, 1000
  %39 = mul nsw i32 %38, 1000000
  %40 = sext i32 %39 to i64
  %41 = getelementptr inbounds nuw i8, ptr %7, i64 24
  store i64 %40, ptr %41, align 8, !tbaa !336
  br label %42

42:                                               ; preds = %33, %18
  %43 = load i32, ptr getelementptr inbounds nuw (i8, ptr @_glfw, i64 134140), align 4, !tbaa !272
  %44 = call i32 @timerfd_settime(i32 noundef %43, i32 noundef 0, ptr noundef nonnull %7, ptr noundef null) #20
  %45 = load i32, ptr getelementptr inbounds nuw (i8, ptr @_glfw, i64 137192), align 8, !tbaa !283
  call void @_glfwInputKey(ptr noundef nonnull %8, i32 noundef %.0.i, i32 noundef %4, i32 noundef %17, i32 noundef %45) #20
  call fastcc void @inputText(ptr noundef nonnull %8, i32 noundef %4)
  br label %49

.critedge:                                        ; preds = %translateKey.exit
  %46 = load i32, ptr getelementptr inbounds nuw (i8, ptr @_glfw, i64 134140), align 4, !tbaa !272
  %47 = call i32 @timerfd_settime(i32 noundef %46, i32 noundef 0, ptr noundef nonnull %7, ptr noundef null) #20
  %48 = load i32, ptr getelementptr inbounds nuw (i8, ptr @_glfw, i64 137192), align 8, !tbaa !283
  call void @_glfwInputKey(ptr noundef nonnull %8, i32 noundef %.0.i, i32 noundef %4, i32 noundef %17, i32 noundef %48) #20
  br label %49

49:                                               ; preds = %.critedge, %42
  call void @llvm.lifetime.end.p0(i64 32, ptr nonnull %7) #20
  br label %50

50:                                               ; preds = %6, %49
  ret void
}